target datalayout = "e-m:e-p270:32:32-p271:32:32-p272:64:64-i64:64-i128:128-f80:128-n8:16:32:64-S128"
target triple = "x86_64-pc-linux-gnu"

%struct.VP8LBitEntropy = type { float, i32, i32, i32, i32 }
%struct.VP8LStreaks = type { [2 x i32], [2 x [2 x i32]] }

@VP8LFastSLog2Slow = hidden global ptr null, align 8

; Function Attrs: nounwind uwtable
define internal float @VP8LFastSLog2(i32 noundef %0) #0 {
  %2 = alloca i32, align 4
  store i32 %0, ptr %2, align 4
  %3 = load i32, ptr %2, align 4
  %4 = icmp ult i32 %3, 256
  br i1 %4, label %5, label %10

5:                                                ; preds = %1
  %6 = load i32, ptr %2, align 4
  %7 = zext i32 %6 to i64
  %8 = getelementptr inbounds [256 x float], ptr @kSLog2Table, i64 0, i64 %7
  %9 = load float, ptr %8, align 4
  br label %14

10:                                               ; preds = %1
  %11 = load ptr, ptr @VP8LFastSLog2Slow, align 8
  %12 = load i32, ptr %2, align 4
  %13 = call float %11(i32 noundef %12)
  br label %14

14:                                               ; preds = %10, %5
  %15 = phi float [ %9, %5 ], [ %13, %10 ]
  ret float %15
}

; Function Attrs: nounwind uwtable
define internal void @GetEntropyUnrefinedHelper(i32 noundef %0, i32 noundef %1, ptr noundef %2, ptr noundef %3, ptr noundef %4, ptr noundef %5) #0 {
  %7 = alloca i32, align 4
  %8 = alloca i32, align 4
  %9 = alloca ptr, align 8
  %10 = alloca ptr, align 8
  %11 = alloca ptr, align 8
  %12 = alloca ptr, align 8
  %13 = alloca i32, align 4
  store i32 %0, ptr %7, align 4
  store i32 %1, ptr %8, align 4
  store ptr %2, ptr %9, align 8
  store ptr %3, ptr %10, align 8
  store ptr %4, ptr %11, align 8
  store ptr %5, ptr %12, align 8
  %14 = load i32, ptr %8, align 4
  %15 = load ptr, ptr %10, align 8
  %16 = load i32, ptr %15, align 4
  %17 = sub nsw i32 %14, %16
  store i32 %17, ptr %13, align 4
  %18 = load ptr, ptr %9, align 8
  %19 = load i32, ptr %18, align 4
  %20 = icmp ne i32 %19, 0
  br i1 %20, label %21, label %61

21:                                               ; preds = %6
  %22 = load ptr, ptr %9, align 8
  %23 = load i32, ptr %22, align 4
  %24 = load i32, ptr %13, align 4
  %25 = mul i32 %23, %24
  %26 = load ptr, ptr %11, align 8
  %27 = getelementptr inbounds %struct.VP8LBitEntropy, ptr %26, i32 0, i32 1
  %28 = load i32, ptr %27, align 4
  %29 = add i32 %28, %25
  store i32 %29, ptr %27, align 4
  %30 = load i32, ptr %13, align 4
  %31 = load ptr, ptr %11, align 8
  %32 = getelementptr inbounds %struct.VP8LBitEntropy, ptr %31, i32 0, i32 2
  %33 = load i32, ptr %32, align 4
  %34 = add nsw i32 %33, %30
  store i32 %34, ptr %32, align 4
  %35 = load ptr, ptr %10, align 8
  %36 = load i32, ptr %35, align 4
  %37 = load ptr, ptr %11, align 8
  %38 = getelementptr inbounds %struct.VP8LBitEntropy, ptr %37, i32 0, i32 4
  store i32 %36, ptr %38, align 4
  %39 = load ptr, ptr %9, align 8
  %40 = load i32, ptr %39, align 4
  %41 = call float @VP8LFastSLog2(i32 noundef %40)
  %42 = load i32, ptr %13, align 4
  %43 = sitofp i32 %42 to float
  %44 = load ptr, ptr %11, align 8
  %45 = getelementptr inbounds %struct.VP8LBitEntropy, ptr %44, i32 0, i32 0
  %46 = load float, ptr %45, align 4
  %47 = fneg float %41
  %48 = call float @llvm.fmuladd.f32(float %47, float %43, float %46)
  store float %48, ptr %45, align 4
  %49 = load ptr, ptr %11, align 8
  %50 = getelementptr inbounds %struct.VP8LBitEntropy, ptr %49, i32 0, i32 3
  %51 = load i32, ptr %50, align 4
  %52 = load ptr, ptr %9, align 8
  %53 = load i32, ptr %52, align 4
  %54 = icmp ult i32 %51, %53
  br i1 %54, label %55, label %60

55:                                               ; preds = %21
  %56 = load ptr, ptr %9, align 8
  %57 = load i32, ptr %56, align 4
  %58 = load ptr, ptr %11, align 8
  %59 = getelementptr inbounds %struct.VP8LBitEntropy, ptr %58, i32 0, i32 3
  store i32 %57, ptr %59, align 4
  br label %60

60:                                               ; preds = %55, %21
  br label %61

61:                                               ; preds = %60, %6
  %62 = load i32, ptr %13, align 4
  %63 = icmp sgt i32 %62, 3
  %64 = zext i1 %63 to i32
  %65 = load ptr, ptr %12, align 8
  %66 = getelementptr inbounds %struct.VP8LStreaks, ptr %65, i32 0, i32 0
  %67 = load ptr, ptr %9, align 8
  %68 = load i32, ptr %67, align 4
  %69 = icmp ne i32 %68, 0
  %70 = zext i1 %69 to i32
  %71 = sext i32 %70 to i64
  %72 = getelementptr inbounds [2 x i32], ptr %66, i64 0, i64 %71
  %73 = load i32, ptr %72, align 4
  %74 = add nsw i32 %73, %64
  store i32 %74, ptr %72, align 4
  %75 = load i32, ptr %13, align 4
  %76 = load ptr, ptr %12, align 8
  %77 = getelementptr inbounds %struct.VP8LStreaks, ptr %76, i32 0, i32 1
  %78 = load ptr, ptr %9, align 8
  %79 = load i32, ptr %78, align 4
  %80 = icmp ne i32 %79, 0
  %81 = zext i1 %80 to i32
  %82 = sext i32 %81 to i64
  %83 = getelementptr inbounds [2 x [2 x i32]], ptr %77, i64 0, i64 %82
  %84 = load i32, ptr %13, align 4
  %85 = icmp sgt i32 %84, 3
  %86 = zext i1 %85 to i32
  %87 = sext i32 %86 to i64
  %88 = getelementptr inbounds [2 x i32], ptr %83, i64 0, i64 %87
  %89 = load i32, ptr %88, align 4
  %90 = add nsw i32 %89, %75
  store i32 %90, ptr %88, align 4
  %91 = load i32, ptr %7, align 4
  %92 = load ptr, ptr %9, align 8
  store i32 %91, ptr %92, align 4
  %93 = load i32, ptr %8, align 4
  %94 = load ptr, ptr %10, align 8
  store i32 %93, ptr %94, align 4
  ret void
}

; Function Attrs: nounwind uwtable
define hidden void @VP8LBitEntropyInit(ptr noundef %0) #0 {
  %2 = alloca ptr, align 8
  store ptr %0, ptr %2, align 8
  %3 = load ptr, ptr %2, align 8
  %4 = getelementptr inbounds %struct.VP8LBitEntropy, ptr %3, i32 0, i32 0
  store float 0.000000e+00, ptr %4, align 4
  %5 = load ptr, ptr %2, align 8
  %6 = getelementptr inbounds %struct.VP8LBitEntropy, ptr %5, i32 0, i32 1
  store i32 0, ptr %6, align 4
  %7 = load ptr, ptr %2, align 8
  %8 = getelementptr inbounds %struct.VP8LBitEntropy, ptr %7, i32 0, i32 2
  store i32 0, ptr %8, align 4
  %9 = load ptr, ptr %2, align 8
  %10 = getelementptr inbounds %struct.VP8LBitEntropy, ptr %9, i32 0, i32 3
  store i32 0, ptr %10, align 4
  %11 = load ptr, ptr %2, align 8
  %12 = getelementptr inbounds %struct.VP8LBitEntropy, ptr %11, i32 0, i32 4
  store i32 -1, ptr %12, align 4
  ret void
}

; Function Attrs: nounwind uwtable
define internal void @GetCombinedEntropyUnrefined_C(ptr noundef %0, ptr noundef %1, i32 noundef %2, ptr noundef %3, ptr noundef %4) #0 {
  %6 = alloca ptr, align 8
  %7 = alloca ptr, align 8
  %8 = alloca i32, align 4
  %9 = alloca ptr, align 8
  %10 = alloca ptr, align 8
  %11 = alloca i32, align 4
  %12 = alloca i32, align 4
  %13 = alloca i32, align 4
  %14 = alloca i32, align 4
  store ptr %0, ptr %6, align 8
  store ptr %1, ptr %7, align 8
  store i32 %2, ptr %8, align 4
  store ptr %3, ptr %9, align 8
  store ptr %4, ptr %10, align 8
  store i32 1, ptr %11, align 4
  store i32 0, ptr %12, align 4
  %15 = load ptr, ptr %6, align 8
  %16 = getelementptr inbounds i32, ptr %15, i64 0
  %17 = load i32, ptr %16, align 4
  %18 = load ptr, ptr %7, align 8
  %19 = getelementptr inbounds i32, ptr %18, i64 0
  %20 = load i32, ptr %19, align 4
  %21 = add i32 %17, %20
  store i32 %21, ptr %13, align 4
  %22 = load ptr, ptr %10, align 8
  call void @llvm.memset.p0.i64(ptr align 4 %22, i8 0, i64 24, i1 false)
  %23 = load ptr, ptr %9, align 8
  call void @VP8LBitEntropyInit(ptr noundef %23)
  store i32 1, ptr %11, align 4
  br label %24

24:                                               ; preds = %49, %5
  %25 = load i32, ptr %11, align 4
  %26 = load i32, ptr %8, align 4
  %27 = icmp slt i32 %25, %26
  br i1 %27, label %28, label %52

28:                                               ; preds = %24
  %29 = load ptr, ptr %6, align 8
  %30 = load i32, ptr %11, align 4
  %31 = sext i32 %30 to i64
  %32 = getelementptr inbounds i32, ptr %29, i64 %31
  %33 = load i32, ptr %32, align 4
  %34 = load ptr, ptr %7, align 8
  %35 = load i32, ptr %11, align 4
  %36 = sext i32 %35 to i64
  %37 = getelementptr inbounds i32, ptr %34, i64 %36
  %38 = load i32, ptr %37, align 4
  %39 = add i32 %33, %38
  store i32 %39, ptr %14, align 4
  %40 = load i32, ptr %14, align 4
  %41 = load i32, ptr %13, align 4
  %42 = icmp ne i32 %40, %41
  br i1 %42, label %43, label %48

43:                                               ; preds = %28
  %44 = load i32, ptr %14, align 4
  %45 = load i32, ptr %11, align 4
  %46 = load ptr, ptr %9, align 8
  %47 = load ptr, ptr %10, align 8
  call void @GetEntropyUnrefinedHelper(i32 noundef %44, i32 noundef %45, ptr noundef %13, ptr noundef %12, ptr noundef %46, ptr noundef %47)
  br label %48

48:                                               ; preds = %43, %28
  br label %49

49:                                               ; preds = %48
  %50 = load i32, ptr %11, align 4
  %51 = add nsw i32 %50, 1
  store i32 %51, ptr %11, align 4
  br label %24, !llvm.loop !20

52:                                               ; preds = %24
  %53 = load i32, ptr %11, align 4
  %54 = load ptr, ptr %9, align 8
  %55 = load ptr, ptr %10, align 8
  call void @GetEntropyUnrefinedHelper(i32 noundef 0, i32 noundef %53, ptr noundef %13, ptr noundef %12, ptr noundef %54, ptr noundef %55)
  %56 = load ptr, ptr %9, align 8
  %57 = getelementptr inbounds %struct.VP8LBitEntropy, ptr %56, i32 0, i32 1
  %58 = load i32, ptr %57, align 4
  %59 = call float @VP8LFastSLog2(i32 noundef %58)
  %60 = load ptr, ptr %9, align 8
  %61 = getelementptr inbounds %struct.VP8LBitEntropy, ptr %60, i32 0, i32 0
  %62 = load float, ptr %61, align 4
  %63 = fadd float %62, %59
  store float %63, ptr %61, align 4
  ret void
}