; Function Attrs: nounwind uwtable
define internal void @GetCombinedEntropyUnrefined_C(ptr nocapture noundef readonly %0, ptr nocapture noundef readonly %1, i32 noundef %2, ptr nocapture noundef %3, ptr nocapture noundef %4) #1 {
  %6 = load i32, ptr %0, align 4
  %7 = load i32, ptr %1, align 4
  %8 = add i32 %7, %6
  tail call void @llvm.memset.p0.i64(ptr noundef nonnull align 4 dereferenceable(24) %4, i8 0, i64 24, i1 false)
  %9 = getelementptr inbounds i8, ptr %3, i64 16
  tail call void @llvm.memset.p0.i64(ptr noundef nonnull align 4 dereferenceable(16) %3, i8 0, i64 16, i1 false)
  store i32 -1, ptr %9, align 4
  %10 = icmp sgt i32 %2, 1
  br i1 %10, label %.lr.ph, label %._crit_edge

.lr.ph:                                           ; preds = %5
  %11 = getelementptr inbounds i8, ptr %3, i64 4
  %12 = getelementptr inbounds i8, ptr %3, i64 8
  %13 = getelementptr inbounds i8, ptr %3, i64 12
  %14 = getelementptr inbounds i8, ptr %4, i64 8
  %wide.trip.count = zext nneg i32 %2 to i64
  br label %15

15:                                               ; preds = %.lr.ph, %57
  %indvars.iv = phi i64 [ 1, %.lr.ph ], [ %indvars.iv.next, %57 ]
  %.03943 = phi i32 [ %8, %.lr.ph ], [ %.1, %57 ]
  %.04042 = phi i32 [ 0, %.lr.ph ], [ %.141, %57 ]
  %16 = getelementptr inbounds i32, ptr %0, i64 %indvars.iv
  %17 = load i32, ptr %16, align 4
  %18 = getelementptr inbounds i32, ptr %1, i64 %indvars.iv
  %19 = load i32, ptr %18, align 4
  %20 = add i32 %19, %17
  %.not = icmp eq i32 %20, %.03943
  br i1 %.not, label %57, label %21

21:                                               ; preds = %15
  %22 = trunc nuw nsw i64 %indvars.iv to i32
  %23 = sub nsw i32 %22, %.04042
  %.not.i = icmp eq i32 %.03943, 0
  br i1 %.not.i, label %GetEntropyUnrefinedHelper.exit, label %24

24:                                               ; preds = %21
  %25 = mul i32 %23, %.03943
  %26 = load i32, ptr %11, align 4
  %27 = add i32 %26, %25
  store i32 %27, ptr %11, align 4
  %28 = load i32, ptr %12, align 4
  %29 = add nsw i32 %28, %23
  store i32 %29, ptr %12, align 4
  store i32 %.04042, ptr %9, align 4
  %30 = icmp ult i32 %.03943, 256
  br i1 %30, label %31, label %35

31:                                               ; preds = %24
  %32 = zext nneg i32 %.03943 to i64
  %33 = getelementptr inbounds [256 x float], ptr @kSLog2Table, i64 0, i64 %32
  %34 = load float, ptr %33, align 4
  br label %VP8LFastSLog2.exit.i

35:                                               ; preds = %24
  %36 = load ptr, ptr @VP8LFastSLog2Slow, align 8
  %37 = tail call float %36(i32 noundef %.03943) #12
  br label %VP8LFastSLog2.exit.i

VP8LFastSLog2.exit.i:                             ; preds = %35, %31
  %38 = phi float [ %34, %31 ], [ %37, %35 ]
  %39 = sitofp i32 %23 to float
  %40 = load float, ptr %3, align 4
  %41 = fneg float %38
  %42 = tail call float @llvm.fmuladd.f32(float %41, float %39, float %40)
  store float %42, ptr %3, align 4
  %43 = load i32, ptr %13, align 4
  %44 = icmp ult i32 %43, %.03943
  br i1 %44, label %45, label %GetEntropyUnrefinedHelper.exit

45:                                               ; preds = %VP8LFastSLog2.exit.i
  store i32 %.03943, ptr %13, align 4
  br label %GetEntropyUnrefinedHelper.exit

GetEntropyUnrefinedHelper.exit:                   ; preds = %21, %VP8LFastSLog2.exit.i, %45
  %46 = icmp sgt i32 %23, 3
  %47 = zext i1 %46 to i32
  %48 = icmp ne i32 %.03943, 0
  %49 = zext i1 %48 to i64
  %50 = getelementptr inbounds [2 x i32], ptr %4, i64 0, i64 %49
  %51 = load i32, ptr %50, align 4
  %52 = add nsw i32 %51, %47
  store i32 %52, ptr %50, align 4
  %53 = zext i1 %46 to i64
  %54 = getelementptr inbounds [2 x [2 x i32]], ptr %14, i64 0, i64 %49, i64 %53
  %55 = load i32, ptr %54, align 4
  %56 = add nsw i32 %55, %23
  store i32 %56, ptr %54, align 4
  br label %57

57:                                               ; preds = %15, %GetEntropyUnrefinedHelper.exit
  %.141 = phi i32 [ %.04042, %15 ], [ %22, %GetEntropyUnrefinedHelper.exit ]
  %.1 = phi i32 [ %.03943, %15 ], [ %20, %GetEntropyUnrefinedHelper.exit ]
  %indvars.iv.next = add nuw nsw i64 %indvars.iv, 1
  %exitcond.not = icmp eq i64 %indvars.iv.next, %wide.trip.count
  br i1 %exitcond.not, label %._crit_edge, label %15, !llvm.loop !20

._crit_edge:                                      ; preds = %57, %5
  %.040.lcssa = phi i32 [ 0, %5 ], [ %.141, %57 ]
  %.039.lcssa = phi i32 [ %8, %5 ], [ %.1, %57 ]
  %.0.lcssa = phi i32 [ 1, %5 ], [ %2, %57 ]
  %58 = sub nsw i32 %.0.lcssa, %.040.lcssa
  %.not.i21 = icmp eq i32 %.039.lcssa, 0
  br i1 %.not.i21, label %GetEntropyUnrefinedHelper.exit24, label %59

59:                                               ; preds = %._crit_edge
  %60 = mul i32 %58, %.039.lcssa
  %61 = getelementptr inbounds i8, ptr %3, i64 4
  %62 = load i32, ptr %61, align 4
  %63 = add i32 %62, %60
  store i32 %63, ptr %61, align 4
  %64 = getelementptr inbounds i8, ptr %3, i64 8
  %65 = load i32, ptr %64, align 4
  %66 = add nsw i32 %65, %58
  store i32 %66, ptr %64, align 4
  store i32 %.040.lcssa, ptr %9, align 4
  %67 = icmp ult i32 %.039.lcssa, 256
  br i1 %67, label %68, label %72

68:                                               ; preds = %59
  %69 = zext nneg i32 %.039.lcssa to i64
  %70 = getelementptr inbounds [256 x float], ptr @kSLog2Table, i64 0, i64 %69
  %71 = load float, ptr %70, align 4
  br label %VP8LFastSLog2.exit.i22

72:                                               ; preds = %59
  %73 = load ptr, ptr @VP8LFastSLog2Slow, align 8
  %74 = tail call float %73(i32 noundef %.039.lcssa) #12
  br label %VP8LFastSLog2.exit.i22

VP8LFastSLog2.exit.i22:                           ; preds = %72, %68
  %75 = phi float [ %71, %68 ], [ %74, %72 ]
  %76 = sitofp i32 %58 to float
  %77 = load float, ptr %3, align 4
  %78 = fneg float %75
  %79 = tail call float @llvm.fmuladd.f32(float %78, float %76, float %77)
  store float %79, ptr %3, align 4
  %80 = getelementptr inbounds i8, ptr %3, i64 12
  %81 = load i32, ptr %80, align 4
  %82 = icmp ult i32 %81, %.039.lcssa
  br i1 %82, label %83, label %GetEntropyUnrefinedHelper.exit24

83:                                               ; preds = %VP8LFastSLog2.exit.i22
  store i32 %.039.lcssa, ptr %80, align 4
  br label %GetEntropyUnrefinedHelper.exit24

GetEntropyUnrefinedHelper.exit24:                 ; preds = %._crit_edge, %VP8LFastSLog2.exit.i22, %83
  %84 = icmp sgt i32 %58, 3
  %85 = zext i1 %84 to i32
  %86 = icmp ne i32 %.039.lcssa, 0
  %87 = zext i1 %86 to i64
  %88 = getelementptr inbounds [2 x i32], ptr %4, i64 0, i64 %87
  %89 = load i32, ptr %88, align 4
  %90 = add nsw i32 %89, %85
  store i32 %90, ptr %88, align 4
  %91 = getelementptr inbounds i8, ptr %4, i64 8
  %92 = zext i1 %84 to i64
  %93 = getelementptr inbounds [2 x [2 x i32]], ptr %91, i64 0, i64 %87, i64 %92
  %94 = load i32, ptr %93, align 4
  %95 = add nsw i32 %94, %58
  store i32 %95, ptr %93, align 4
  %96 = getelementptr inbounds i8, ptr %3, i64 4
  %97 = load i32, ptr %96, align 4
  %98 = icmp ult i32 %97, 256
  br i1 %98, label %99, label %103

99:                                               ; preds = %GetEntropyUnrefinedHelper.exit24
  %100 = zext nneg i32 %97 to i64
  %101 = getelementptr inbounds [256 x float], ptr @kSLog2Table, i64 0, i64 %100
  %102 = load float, ptr %101, align 4
  br label %VP8LFastSLog2.exit

103:                                              ; preds = %GetEntropyUnrefinedHelper.exit24
  %104 = load ptr, ptr @VP8LFastSLog2Slow, align 8
  %105 = tail call float %104(i32 noundef %97) #12
  br label %VP8LFastSLog2.exit

VP8LFastSLog2.exit:                               ; preds = %99, %103
  %106 = phi float [ %102, %99 ], [ %105, %103 ]
  %107 = load float, ptr %3, align 4
  %108 = fadd float %106, %107
  store float %108, ptr %3, align 4
  ret void
}